Certificate:
    Data:
        Version: 3 (0x2)
        Serial Number: 3 (0x3)
        Signature Algorithm: sha1WithRSAEncryption
        Issuer: DC=org, DC=eumel-suite, O=EUMEL Suite, OU=Email Categorizer, CN=Eumel Email Categorizer CA
        Validity
            Not Before: Jun  3 13:16:12 2021 GMT
            Not After : Jun  3 13:16:12 2023 GMT
        Subject: DC=org, DC=eumel-suite, O=EUMEL Suite, OU=Email Categorizer CodeSigning, CN=EUMEL Email Categorizer
        Subject Public Key Info:
            Public Key Algorithm: rsaEncryption
                RSA Public-Key: (2048 bit)
                Modulus:
                    00:9d:25:9a:b1:28:70:d0:32:be:9b:80:fe:7c:98:
                    f1:8a:01:a8:42:1d:be:45:40:f8:ad:41:a4:e5:8b:
                    b3:49:04:17:f9:e7:0c:a2:64:e3:02:22:96:87:e9:
                    91:27:c1:57:cc:13:34:ea:68:be:cf:50:c8:5f:9b:
                    fc:67:f7:d6:86:a2:ff:e0:6e:7e:1e:0f:59:c2:c8:
                    f2:d1:cb:0f:59:7c:b9:4d:2b:f2:b9:01:37:cd:a5:
                    6e:15:1b:52:42:9a:42:82:7e:11:ba:b0:c7:6b:d5:
                    e3:3f:0c:ff:d7:4e:b8:70:1c:4a:db:f9:02:58:d3:
                    3c:08:80:ab:7a:ab:c5:c2:0c:21:b2:3d:36:b1:94:
                    45:72:e1:4d:ca:ea:39:12:58:a6:33:49:75:0c:4e:
                    c9:86:05:cc:ae:b2:0e:c9:a5:b7:cb:e1:e6:6d:b0:
                    8e:d7:1d:71:c8:6e:d5:dd:dc:b1:73:90:fd:e6:e5:
                    64:21:4b:47:13:84:62:9f:a4:20:19:b7:b4:b2:e2:
                    c2:bf:7e:60:24:e4:14:d9:fa:6e:23:7f:aa:31:b4:
                    c8:b7:00:c3:96:30:cd:06:53:2c:e4:60:bc:a1:4b:
                    e2:05:06:05:de:bd:1c:db:d1:36:3d:06:0e:2a:2f:
                    b0:cc:f0:45:6a:13:1d:3d:60:3e:eb:69:af:73:37:
                    47:09
                Exponent: 65537 (0x10001)
        X509v3 extensions:
            X509v3 Key Usage: critical
                Digital Signature
            X509v3 Basic Constraints: 
                CA:FALSE
            X509v3 Extended Key Usage: critical
                Code Signing
            X509v3 Subject Key Identifier: 
                23:E5:62:B7:F7:5E:22:5B:3F:27:C8:F6:2B:CE:D7:7F:04:F3:1F:86
            X509v3 Authority Key Identifier: 
                keyid:4D:D2:13:DC:1B:5D:91:E5:71:27:7B:55:00:04:8F:BD:1A:9F:1D:1F

            Authority Information Access: 
                CA Issuers - URI:http://eumel-suite.org/eumel-categorizer-ca.cer

            X509v3 CRL Distribution Points: 

                Full Name:
                  URI:http://eumel-suite.org/eumel-categorizer-ca.crl

    Signature Algorithm: sha1WithRSAEncryption
         b2:39:5d:bf:e1:eb:8c:9e:49:71:08:80:89:0f:73:78:22:ee:
         c3:fd:85:4b:1d:2f:e3:fe:ca:8e:bf:8f:83:45:ff:ec:ad:79:
         1d:e9:dd:40:49:fb:c7:a9:e8:e3:73:fa:63:09:b6:05:d1:16:
         e5:47:d1:8d:df:2e:47:f3:fa:60:14:f1:a9:46:15:6d:ca:8d:
         62:8d:74:c2:fe:db:07:da:55:89:fb:95:f2:a8:60:a0:2b:0e:
         b6:fc:88:00:fe:33:d2:27:4f:62:eb:05:2b:ac:97:3a:fa:bb:
         95:a8:08:1b:d3:2f:3c:bd:ab:3f:55:f9:db:1d:8f:56:35:94:
         ea:88:33:b1:5a:31:57:de:b5:c8:91:b6:8e:81:fb:16:0b:e0:
         26:36:0a:96:71:e9:32:5a:9d:ca:a3:4c:38:1c:5d:cb:38:1c:
         70:8a:ad:4d:02:f7:1f:59:ef:80:1b:1a:63:0e:d9:c5:b1:22:
         8d:f4:d4:94:61:8d:2b:4c:08:35:77:4c:22:a4:df:8e:9f:90:
         b8:3e:c0:6d:d0:10:0b:b9:c3:2e:c7:c0:4f:fb:ca:cb:4e:e6:
         0e:dd:77:0c:ef:e5:4d:31:6e:bd:e0:d0:78:3e:a0:52:d3:7e:
         49:95:66:2f:43:46:6e:ce:24:05:86:29:15:0b:d2:39:06:a1:
         1a:df:6c:ad
-----BEGIN CERTIFICATE-----
MIIEoDCCA4igAwIBAgIBAzANBgkqhkiG9w0BAQUFADCBiTETMBEGCgmSJomT8ixk
ARkWA29yZzEbMBkGCgmSJomT8ixkARkWC2V1bWVsLXN1aXRlMRQwEgYDVQQKDAtF
VU1FTCBTdWl0ZTEaMBgGA1UECwwRRW1haWwgQ2F0ZWdvcml6ZXIxIzAhBgNVBAMM
GkV1bWVsIEVtYWlsIENhdGVnb3JpemVyIENBMB4XDTIxMDYwMzEzMTYxMloXDTIz
MDYwMzEzMTYxMlowgZIxEzARBgoJkiaJk/IsZAEZFgNvcmcxGzAZBgoJkiaJk/Is
ZAEZFgtldW1lbC1zdWl0ZTEUMBIGA1UECgwLRVVNRUwgU3VpdGUxJjAkBgNVBAsM
HUVtYWlsIENhdGVnb3JpemVyIENvZGVTaWduaW5nMSAwHgYDVQQDDBdFVU1FTCBF
bWFpbCBDYXRlZ29yaXplcjCCASIwDQYJKoZIhvcNAQEBBQADggEPADCCAQoCggEB
AJ0lmrEocNAyvpuA/nyY8YoBqEIdvkVA+K1BpOWLs0kEF/nnDKJk4wIilofpkSfB
V8wTNOpovs9QyF+b/Gf31oai/+Bufh4PWcLI8tHLD1l8uU0r8rkBN82lbhUbUkKa
QoJ+Ebqwx2vV4z8M/9dOuHAcStv5AljTPAiAq3qrxcIMIbI9NrGURXLhTcrqORJY
pjNJdQxOyYYFzK6yDsmlt8vh5m2wjtcdcchu1d3csXOQ/eblZCFLRxOEYp+kIBm3
tLLiwr9+YCTkFNn6biN/qjG0yLcAw5YwzQZTLORgvKFL4gUGBd69HNvRNj0GDiov
sMzwRWoTHT1gPutpr3M3RwkCAwEAAaOCAQYwggECMA4GA1UdDwEB/wQEAwIHgDAJ
BgNVHRMEAjAAMBYGA1UdJQEB/wQMMAoGCCsGAQUFBwMDMB0GA1UdDgQWBBQj5WK3
914iWz8nyPYrztd/BPMfhjAfBgNVHSMEGDAWgBRN0hPcG12R5XEne1UABI+9Gp8d
HzBLBggrBgEFBQcBAQQ/MD0wOwYIKwYBBQUHMAKGL2h0dHA6Ly9ldW1lbC1zdWl0
ZS5vcmcvZXVtZWwtY2F0ZWdvcml6ZXItY2EuY2VyMEAGA1UdHwQ5MDcwNaAzoDGG
L2h0dHA6Ly9ldW1lbC1zdWl0ZS5vcmcvZXVtZWwtY2F0ZWdvcml6ZXItY2EuY3Js
MA0GCSqGSIb3DQEBBQUAA4IBAQCyOV2/4euMnklxCICJD3N4Iu7D/YVLHS/j/sqO
v4+DRf/srXkd6d1ASfvHqejjc/pjCbYF0RblR9GN3y5H8/pgFPGpRhVtyo1ijXTC
/tsH2lWJ+5XyqGCgKw62/IgA/jPSJ09i6wUrrJc6+ruVqAgb0y88vas/VfnbHY9W
NZTqiDOxWjFX3rXIkbaOgfsWC+AmNgqWcekyWp3Ko0w4HF3LOBxwiq1NAvcfWe+A
GxpjDtnFsSKN9NSUYY0rTAg1d0wipN+On5C4PsBt0BALucMux8BP+8rLTuYO3XcM
7+VNMW694NB4PqBS035JlWYvQ0ZuziQFhikVC9I5BqEa32yt
-----END CERTIFICATE-----
